ARM GAS  C:\Users\81506\AppData\Local\Temp\ccfI4BMb.s 			page 1


   1              		.cpu cortex-m4
   2              		.arch armv7e-m
   3              		.fpu fpv4-sp-d16
   4              		.eabi_attribute 27, 1
   5              		.eabi_attribute 28, 1
   6              		.eabi_attribute 20, 1
   7              		.eabi_attribute 21, 1
   8              		.eabi_attribute 23, 3
   9              		.eabi_attribute 24, 1
  10              		.eabi_attribute 25, 1
  11              		.eabi_attribute 26, 1
  12              		.eabi_attribute 30, 1
  13              		.eabi_attribute 34, 1
  14              		.eabi_attribute 18, 4
  15              		.file	"can.c"
  16              		.text
  17              	.Ltext0:
  18              		.cfi_sections	.debug_frame
  19              		.file 1 "Core/Src/can.c"
  20              		.section	.text.MX_CAN1_Init,"ax",%progbits
  21              		.align	1
  22              		.global	MX_CAN1_Init
  23              		.syntax unified
  24              		.thumb
  25              		.thumb_func
  27              	MX_CAN1_Init:
  28              	.LFB134:
   1:Core/Src/can.c **** /* USER CODE BEGIN Header */
   2:Core/Src/can.c **** /**
   3:Core/Src/can.c ****   ******************************************************************************
   4:Core/Src/can.c ****   * @file    can.c
   5:Core/Src/can.c ****   * @brief   This file provides code for the configuration
   6:Core/Src/can.c ****   *          of the CAN instances.
   7:Core/Src/can.c ****   ******************************************************************************
   8:Core/Src/can.c ****   * @attention
   9:Core/Src/can.c ****   *
  10:Core/Src/can.c ****   * Copyright (c) 2025 STMicroelectronics.
  11:Core/Src/can.c ****   * All rights reserved.
  12:Core/Src/can.c ****   *
  13:Core/Src/can.c ****   * This software is licensed under terms that can be found in the LICENSE file
  14:Core/Src/can.c ****   * in the root directory of this software component.
  15:Core/Src/can.c ****   * If no LICENSE file comes with this software, it is provided AS-IS.
  16:Core/Src/can.c ****   *
  17:Core/Src/can.c ****   ******************************************************************************
  18:Core/Src/can.c ****   */
  19:Core/Src/can.c **** /* USER CODE END Header */
  20:Core/Src/can.c **** /* Includes ------------------------------------------------------------------*/
  21:Core/Src/can.c **** #include "can.h"
  22:Core/Src/can.c **** 
  23:Core/Src/can.c **** /* USER CODE BEGIN 0 */
  24:Core/Src/can.c **** 
  25:Core/Src/can.c **** __IO CAN_t can = {0};
  26:Core/Src/can.c **** 
  27:Core/Src/can.c **** /* USER CODE END 0 */
  28:Core/Src/can.c **** 
  29:Core/Src/can.c **** CAN_HandleTypeDef hcan1;
  30:Core/Src/can.c **** 
ARM GAS  C:\Users\81506\AppData\Local\Temp\ccfI4BMb.s 			page 2


  31:Core/Src/can.c **** /* CAN1 init function */
  32:Core/Src/can.c **** void MX_CAN1_Init(void)
  33:Core/Src/can.c **** {
  29              		.loc 1 33 1 view -0
  30              		.cfi_startproc
  31              		@ args = 0, pretend = 0, frame = 0
  32              		@ frame_needed = 0, uses_anonymous_args = 0
  33 0000 08B5     		push	{r3, lr}
  34              	.LCFI0:
  35              		.cfi_def_cfa_offset 8
  36              		.cfi_offset 3, -8
  37              		.cfi_offset 14, -4
  34:Core/Src/can.c **** 
  35:Core/Src/can.c ****   /* USER CODE BEGIN CAN1_Init 0 */
  36:Core/Src/can.c **** 
  37:Core/Src/can.c ****   /* USER CODE END CAN1_Init 0 */
  38:Core/Src/can.c **** 
  39:Core/Src/can.c ****   /* USER CODE BEGIN CAN1_Init 1 */
  40:Core/Src/can.c **** 
  41:Core/Src/can.c ****   /* USER CODE END CAN1_Init 1 */
  42:Core/Src/can.c ****   hcan1.Instance = CAN1;
  38              		.loc 1 42 3 view .LVU1
  39              		.loc 1 42 18 is_stmt 0 view .LVU2
  40 0002 0D48     		ldr	r0, .L5
  41 0004 0D4B     		ldr	r3, .L5+4
  42 0006 0360     		str	r3, [r0]
  43:Core/Src/can.c ****   hcan1.Init.Prescaler = 14;
  43              		.loc 1 43 3 is_stmt 1 view .LVU3
  44              		.loc 1 43 24 is_stmt 0 view .LVU4
  45 0008 0E23     		movs	r3, #14
  46 000a 4360     		str	r3, [r0, #4]
  44:Core/Src/can.c ****   hcan1.Init.Mode = CAN_MODE_NORMAL;
  47              		.loc 1 44 3 is_stmt 1 view .LVU5
  48              		.loc 1 44 19 is_stmt 0 view .LVU6
  49 000c 0023     		movs	r3, #0
  50 000e 8360     		str	r3, [r0, #8]
  45:Core/Src/can.c ****   hcan1.Init.SyncJumpWidth = CAN_SJW_1TQ;
  51              		.loc 1 45 3 is_stmt 1 view .LVU7
  52              		.loc 1 45 28 is_stmt 0 view .LVU8
  53 0010 C360     		str	r3, [r0, #12]
  46:Core/Src/can.c ****   hcan1.Init.TimeSeg1 = CAN_BS1_4TQ;
  54              		.loc 1 46 3 is_stmt 1 view .LVU9
  55              		.loc 1 46 23 is_stmt 0 view .LVU10
  56 0012 4FF44032 		mov	r2, #196608
  57 0016 0261     		str	r2, [r0, #16]
  47:Core/Src/can.c ****   hcan1.Init.TimeSeg2 = CAN_BS2_1TQ;
  58              		.loc 1 47 3 is_stmt 1 view .LVU11
  59              		.loc 1 47 23 is_stmt 0 view .LVU12
  60 0018 4361     		str	r3, [r0, #20]
  48:Core/Src/can.c ****   hcan1.Init.TimeTriggeredMode = DISABLE;
  61              		.loc 1 48 3 is_stmt 1 view .LVU13
  62              		.loc 1 48 32 is_stmt 0 view .LVU14
  63 001a 0376     		strb	r3, [r0, #24]
  49:Core/Src/can.c ****   hcan1.Init.AutoBusOff = ENABLE;
  64              		.loc 1 49 3 is_stmt 1 view .LVU15
  65              		.loc 1 49 25 is_stmt 0 view .LVU16
  66 001c 0122     		movs	r2, #1
ARM GAS  C:\Users\81506\AppData\Local\Temp\ccfI4BMb.s 			page 3


  67 001e 4276     		strb	r2, [r0, #25]
  50:Core/Src/can.c ****   hcan1.Init.AutoWakeUp = DISABLE;
  68              		.loc 1 50 3 is_stmt 1 view .LVU17
  69              		.loc 1 50 25 is_stmt 0 view .LVU18
  70 0020 8376     		strb	r3, [r0, #26]
  51:Core/Src/can.c ****   hcan1.Init.AutoRetransmission = DISABLE;
  71              		.loc 1 51 3 is_stmt 1 view .LVU19
  72              		.loc 1 51 33 is_stmt 0 view .LVU20
  73 0022 C376     		strb	r3, [r0, #27]
  52:Core/Src/can.c ****   hcan1.Init.ReceiveFifoLocked = DISABLE;
  74              		.loc 1 52 3 is_stmt 1 view .LVU21
  75              		.loc 1 52 32 is_stmt 0 view .LVU22
  76 0024 0377     		strb	r3, [r0, #28]
  53:Core/Src/can.c ****   hcan1.Init.TransmitFifoPriority = DISABLE;
  77              		.loc 1 53 3 is_stmt 1 view .LVU23
  78              		.loc 1 53 35 is_stmt 0 view .LVU24
  79 0026 4377     		strb	r3, [r0, #29]
  54:Core/Src/can.c ****   if (HAL_CAN_Init(&hcan1) != HAL_OK)
  80              		.loc 1 54 3 is_stmt 1 view .LVU25
  81              		.loc 1 54 7 is_stmt 0 view .LVU26
  82 0028 FFF7FEFF 		bl	HAL_CAN_Init
  83              	.LVL0:
  84              		.loc 1 54 6 discriminator 1 view .LVU27
  85 002c 00B9     		cbnz	r0, .L4
  86              	.L1:
  55:Core/Src/can.c ****   {
  56:Core/Src/can.c ****     Error_Handler();
  57:Core/Src/can.c ****   }
  58:Core/Src/can.c ****   /* USER CODE BEGIN CAN1_Init 2 */
  59:Core/Src/can.c **** 
  60:Core/Src/can.c ****   /* USER CODE END CAN1_Init 2 */
  61:Core/Src/can.c **** 
  62:Core/Src/can.c **** }
  87              		.loc 1 62 1 view .LVU28
  88 002e 08BD     		pop	{r3, pc}
  89              	.L4:
  56:Core/Src/can.c ****   }
  90              		.loc 1 56 5 is_stmt 1 view .LVU29
  91 0030 FFF7FEFF 		bl	Error_Handler
  92              	.LVL1:
  93              		.loc 1 62 1 is_stmt 0 view .LVU30
  94 0034 FBE7     		b	.L1
  95              	.L6:
  96 0036 00BF     		.align	2
  97              	.L5:
  98 0038 00000000 		.word	hcan1
  99 003c 00640040 		.word	1073767424
 100              		.cfi_endproc
 101              	.LFE134:
 103              		.section	.text.HAL_CAN_MspInit,"ax",%progbits
 104              		.align	1
 105              		.global	HAL_CAN_MspInit
 106              		.syntax unified
 107              		.thumb
 108              		.thumb_func
 110              	HAL_CAN_MspInit:
 111              	.LVL2:
ARM GAS  C:\Users\81506\AppData\Local\Temp\ccfI4BMb.s 			page 4


 112              	.LFB135:
  63:Core/Src/can.c **** 
  64:Core/Src/can.c **** void HAL_CAN_MspInit(CAN_HandleTypeDef* canHandle)
  65:Core/Src/can.c **** {
 113              		.loc 1 65 1 is_stmt 1 view -0
 114              		.cfi_startproc
 115              		@ args = 0, pretend = 0, frame = 32
 116              		@ frame_needed = 0, uses_anonymous_args = 0
 117              		.loc 1 65 1 is_stmt 0 view .LVU32
 118 0000 10B5     		push	{r4, lr}
 119              	.LCFI1:
 120              		.cfi_def_cfa_offset 8
 121              		.cfi_offset 4, -8
 122              		.cfi_offset 14, -4
 123 0002 88B0     		sub	sp, sp, #32
 124              	.LCFI2:
 125              		.cfi_def_cfa_offset 40
  66:Core/Src/can.c **** 
  67:Core/Src/can.c ****   GPIO_InitTypeDef GPIO_InitStruct = {0};
 126              		.loc 1 67 3 is_stmt 1 view .LVU33
 127              		.loc 1 67 20 is_stmt 0 view .LVU34
 128 0004 0023     		movs	r3, #0
 129 0006 0393     		str	r3, [sp, #12]
 130 0008 0493     		str	r3, [sp, #16]
 131 000a 0593     		str	r3, [sp, #20]
 132 000c 0693     		str	r3, [sp, #24]
 133 000e 0793     		str	r3, [sp, #28]
  68:Core/Src/can.c ****   if(canHandle->Instance==CAN1)
 134              		.loc 1 68 3 is_stmt 1 view .LVU35
 135              		.loc 1 68 15 is_stmt 0 view .LVU36
 136 0010 0268     		ldr	r2, [r0]
 137              		.loc 1 68 5 view .LVU37
 138 0012 194B     		ldr	r3, .L11
 139 0014 9A42     		cmp	r2, r3
 140 0016 01D0     		beq	.L10
 141              	.LVL3:
 142              	.L7:
  69:Core/Src/can.c ****   {
  70:Core/Src/can.c ****   /* USER CODE BEGIN CAN1_MspInit 0 */
  71:Core/Src/can.c **** 
  72:Core/Src/can.c ****   /* USER CODE END CAN1_MspInit 0 */
  73:Core/Src/can.c ****     /* CAN1 clock enable */
  74:Core/Src/can.c ****     __HAL_RCC_CAN1_CLK_ENABLE();
  75:Core/Src/can.c **** 
  76:Core/Src/can.c ****     __HAL_RCC_GPIOA_CLK_ENABLE();
  77:Core/Src/can.c ****     /**CAN1 GPIO Configuration
  78:Core/Src/can.c ****     PA11     ------> CAN1_RX
  79:Core/Src/can.c ****     PA12     ------> CAN1_TX
  80:Core/Src/can.c ****     */
  81:Core/Src/can.c ****     GPIO_InitStruct.Pin = GPIO_PIN_11|GPIO_PIN_12;
  82:Core/Src/can.c ****     GPIO_InitStruct.Mode = GPIO_MODE_AF_PP;
  83:Core/Src/can.c ****     GPIO_InitStruct.Pull = GPIO_NOPULL;
  84:Core/Src/can.c ****     GPIO_InitStruct.Speed = GPIO_SPEED_FREQ_VERY_HIGH;
  85:Core/Src/can.c ****     GPIO_InitStruct.Alternate = GPIO_AF9_CAN1;
  86:Core/Src/can.c ****     HAL_GPIO_Init(GPIOA, &GPIO_InitStruct);
  87:Core/Src/can.c **** 
  88:Core/Src/can.c ****     /* CAN1 interrupt Init */
ARM GAS  C:\Users\81506\AppData\Local\Temp\ccfI4BMb.s 			page 5


  89:Core/Src/can.c ****     HAL_NVIC_SetPriority(CAN1_RX0_IRQn, 0, 0);
  90:Core/Src/can.c ****     HAL_NVIC_EnableIRQ(CAN1_RX0_IRQn);
  91:Core/Src/can.c ****   /* USER CODE BEGIN CAN1_MspInit 1 */
  92:Core/Src/can.c **** 
  93:Core/Src/can.c ****   /* USER CODE END CAN1_MspInit 1 */
  94:Core/Src/can.c ****   }
  95:Core/Src/can.c **** }
 143              		.loc 1 95 1 view .LVU38
 144 0018 08B0     		add	sp, sp, #32
 145              	.LCFI3:
 146              		.cfi_remember_state
 147              		.cfi_def_cfa_offset 8
 148              		@ sp needed
 149 001a 10BD     		pop	{r4, pc}
 150              	.LVL4:
 151              	.L10:
 152              	.LCFI4:
 153              		.cfi_restore_state
  74:Core/Src/can.c **** 
 154              		.loc 1 74 5 is_stmt 1 view .LVU39
 155              	.LBB2:
  74:Core/Src/can.c **** 
 156              		.loc 1 74 5 view .LVU40
 157 001c 0024     		movs	r4, #0
 158 001e 0194     		str	r4, [sp, #4]
  74:Core/Src/can.c **** 
 159              		.loc 1 74 5 view .LVU41
 160 0020 03F5EA33 		add	r3, r3, #119808
 161 0024 1A6C     		ldr	r2, [r3, #64]
 162 0026 42F00072 		orr	r2, r2, #33554432
 163 002a 1A64     		str	r2, [r3, #64]
  74:Core/Src/can.c **** 
 164              		.loc 1 74 5 view .LVU42
 165 002c 1A6C     		ldr	r2, [r3, #64]
 166 002e 02F00072 		and	r2, r2, #33554432
 167 0032 0192     		str	r2, [sp, #4]
  74:Core/Src/can.c **** 
 168              		.loc 1 74 5 view .LVU43
 169 0034 019A     		ldr	r2, [sp, #4]
 170              	.LBE2:
  74:Core/Src/can.c **** 
 171              		.loc 1 74 5 view .LVU44
  76:Core/Src/can.c ****     /**CAN1 GPIO Configuration
 172              		.loc 1 76 5 view .LVU45
 173              	.LBB3:
  76:Core/Src/can.c ****     /**CAN1 GPIO Configuration
 174              		.loc 1 76 5 view .LVU46
 175 0036 0294     		str	r4, [sp, #8]
  76:Core/Src/can.c ****     /**CAN1 GPIO Configuration
 176              		.loc 1 76 5 view .LVU47
 177 0038 1A6B     		ldr	r2, [r3, #48]
 178 003a 42F00102 		orr	r2, r2, #1
 179 003e 1A63     		str	r2, [r3, #48]
  76:Core/Src/can.c ****     /**CAN1 GPIO Configuration
 180              		.loc 1 76 5 view .LVU48
 181 0040 1B6B     		ldr	r3, [r3, #48]
 182 0042 03F00103 		and	r3, r3, #1
ARM GAS  C:\Users\81506\AppData\Local\Temp\ccfI4BMb.s 			page 6


 183 0046 0293     		str	r3, [sp, #8]
  76:Core/Src/can.c ****     /**CAN1 GPIO Configuration
 184              		.loc 1 76 5 view .LVU49
 185 0048 029B     		ldr	r3, [sp, #8]
 186              	.LBE3:
  76:Core/Src/can.c ****     /**CAN1 GPIO Configuration
 187              		.loc 1 76 5 view .LVU50
  81:Core/Src/can.c ****     GPIO_InitStruct.Mode = GPIO_MODE_AF_PP;
 188              		.loc 1 81 5 view .LVU51
  81:Core/Src/can.c ****     GPIO_InitStruct.Mode = GPIO_MODE_AF_PP;
 189              		.loc 1 81 25 is_stmt 0 view .LVU52
 190 004a 4FF4C053 		mov	r3, #6144
 191 004e 0393     		str	r3, [sp, #12]
  82:Core/Src/can.c ****     GPIO_InitStruct.Pull = GPIO_NOPULL;
 192              		.loc 1 82 5 is_stmt 1 view .LVU53
  82:Core/Src/can.c ****     GPIO_InitStruct.Pull = GPIO_NOPULL;
 193              		.loc 1 82 26 is_stmt 0 view .LVU54
 194 0050 0223     		movs	r3, #2
 195 0052 0493     		str	r3, [sp, #16]
  83:Core/Src/can.c ****     GPIO_InitStruct.Speed = GPIO_SPEED_FREQ_VERY_HIGH;
 196              		.loc 1 83 5 is_stmt 1 view .LVU55
  84:Core/Src/can.c ****     GPIO_InitStruct.Alternate = GPIO_AF9_CAN1;
 197              		.loc 1 84 5 view .LVU56
  84:Core/Src/can.c ****     GPIO_InitStruct.Alternate = GPIO_AF9_CAN1;
 198              		.loc 1 84 27 is_stmt 0 view .LVU57
 199 0054 0323     		movs	r3, #3
 200 0056 0693     		str	r3, [sp, #24]
  85:Core/Src/can.c ****     HAL_GPIO_Init(GPIOA, &GPIO_InitStruct);
 201              		.loc 1 85 5 is_stmt 1 view .LVU58
  85:Core/Src/can.c ****     HAL_GPIO_Init(GPIOA, &GPIO_InitStruct);
 202              		.loc 1 85 31 is_stmt 0 view .LVU59
 203 0058 0923     		movs	r3, #9
 204 005a 0793     		str	r3, [sp, #28]
  86:Core/Src/can.c **** 
 205              		.loc 1 86 5 is_stmt 1 view .LVU60
 206 005c 03A9     		add	r1, sp, #12
 207 005e 0748     		ldr	r0, .L11+4
 208              	.LVL5:
  86:Core/Src/can.c **** 
 209              		.loc 1 86 5 is_stmt 0 view .LVU61
 210 0060 FFF7FEFF 		bl	HAL_GPIO_Init
 211              	.LVL6:
  89:Core/Src/can.c ****     HAL_NVIC_EnableIRQ(CAN1_RX0_IRQn);
 212              		.loc 1 89 5 is_stmt 1 view .LVU62
 213 0064 2246     		mov	r2, r4
 214 0066 2146     		mov	r1, r4
 215 0068 1420     		movs	r0, #20
 216 006a FFF7FEFF 		bl	HAL_NVIC_SetPriority
 217              	.LVL7:
  90:Core/Src/can.c ****   /* USER CODE BEGIN CAN1_MspInit 1 */
 218              		.loc 1 90 5 view .LVU63
 219 006e 1420     		movs	r0, #20
 220 0070 FFF7FEFF 		bl	HAL_NVIC_EnableIRQ
 221              	.LVL8:
 222              		.loc 1 95 1 is_stmt 0 view .LVU64
 223 0074 D0E7     		b	.L7
 224              	.L12:
ARM GAS  C:\Users\81506\AppData\Local\Temp\ccfI4BMb.s 			page 7


 225 0076 00BF     		.align	2
 226              	.L11:
 227 0078 00640040 		.word	1073767424
 228 007c 00000240 		.word	1073872896
 229              		.cfi_endproc
 230              	.LFE135:
 232              		.section	.text.HAL_CAN_MspDeInit,"ax",%progbits
 233              		.align	1
 234              		.global	HAL_CAN_MspDeInit
 235              		.syntax unified
 236              		.thumb
 237              		.thumb_func
 239              	HAL_CAN_MspDeInit:
 240              	.LVL9:
 241              	.LFB136:
  96:Core/Src/can.c **** 
  97:Core/Src/can.c **** void HAL_CAN_MspDeInit(CAN_HandleTypeDef* canHandle)
  98:Core/Src/can.c **** {
 242              		.loc 1 98 1 is_stmt 1 view -0
 243              		.cfi_startproc
 244              		@ args = 0, pretend = 0, frame = 0
 245              		@ frame_needed = 0, uses_anonymous_args = 0
 246              		.loc 1 98 1 is_stmt 0 view .LVU66
 247 0000 08B5     		push	{r3, lr}
 248              	.LCFI5:
 249              		.cfi_def_cfa_offset 8
 250              		.cfi_offset 3, -8
 251              		.cfi_offset 14, -4
  99:Core/Src/can.c **** 
 100:Core/Src/can.c ****   if(canHandle->Instance==CAN1)
 252              		.loc 1 100 3 is_stmt 1 view .LVU67
 253              		.loc 1 100 15 is_stmt 0 view .LVU68
 254 0002 0268     		ldr	r2, [r0]
 255              		.loc 1 100 5 view .LVU69
 256 0004 084B     		ldr	r3, .L17
 257 0006 9A42     		cmp	r2, r3
 258 0008 00D0     		beq	.L16
 259              	.LVL10:
 260              	.L13:
 101:Core/Src/can.c ****   {
 102:Core/Src/can.c ****   /* USER CODE BEGIN CAN1_MspDeInit 0 */
 103:Core/Src/can.c **** 
 104:Core/Src/can.c ****   /* USER CODE END CAN1_MspDeInit 0 */
 105:Core/Src/can.c ****     /* Peripheral clock disable */
 106:Core/Src/can.c ****     __HAL_RCC_CAN1_CLK_DISABLE();
 107:Core/Src/can.c **** 
 108:Core/Src/can.c ****     /**CAN1 GPIO Configuration
 109:Core/Src/can.c ****     PA11     ------> CAN1_RX
 110:Core/Src/can.c ****     PA12     ------> CAN1_TX
 111:Core/Src/can.c ****     */
 112:Core/Src/can.c ****     HAL_GPIO_DeInit(GPIOA, GPIO_PIN_11|GPIO_PIN_12);
 113:Core/Src/can.c **** 
 114:Core/Src/can.c ****     /* CAN1 interrupt Deinit */
 115:Core/Src/can.c ****     HAL_NVIC_DisableIRQ(CAN1_RX0_IRQn);
 116:Core/Src/can.c ****   /* USER CODE BEGIN CAN1_MspDeInit 1 */
 117:Core/Src/can.c **** 
 118:Core/Src/can.c ****   /* USER CODE END CAN1_MspDeInit 1 */
ARM GAS  C:\Users\81506\AppData\Local\Temp\ccfI4BMb.s 			page 8


 119:Core/Src/can.c ****   }
 120:Core/Src/can.c **** }
 261              		.loc 1 120 1 view .LVU70
 262 000a 08BD     		pop	{r3, pc}
 263              	.LVL11:
 264              	.L16:
 106:Core/Src/can.c **** 
 265              		.loc 1 106 5 is_stmt 1 view .LVU71
 266 000c 074A     		ldr	r2, .L17+4
 267 000e 136C     		ldr	r3, [r2, #64]
 268 0010 23F00073 		bic	r3, r3, #33554432
 269 0014 1364     		str	r3, [r2, #64]
 112:Core/Src/can.c **** 
 270              		.loc 1 112 5 view .LVU72
 271 0016 4FF4C051 		mov	r1, #6144
 272 001a 0548     		ldr	r0, .L17+8
 273              	.LVL12:
 112:Core/Src/can.c **** 
 274              		.loc 1 112 5 is_stmt 0 view .LVU73
 275 001c FFF7FEFF 		bl	HAL_GPIO_DeInit
 276              	.LVL13:
 115:Core/Src/can.c ****   /* USER CODE BEGIN CAN1_MspDeInit 1 */
 277              		.loc 1 115 5 is_stmt 1 view .LVU74
 278 0020 1420     		movs	r0, #20
 279 0022 FFF7FEFF 		bl	HAL_NVIC_DisableIRQ
 280              	.LVL14:
 281              		.loc 1 120 1 is_stmt 0 view .LVU75
 282 0026 F0E7     		b	.L13
 283              	.L18:
 284              		.align	2
 285              	.L17:
 286 0028 00640040 		.word	1073767424
 287 002c 00380240 		.word	1073887232
 288 0030 00000240 		.word	1073872896
 289              		.cfi_endproc
 290              	.LFE136:
 292              		.section	.text.USER_CAN1_Filter_Init,"ax",%progbits
 293              		.align	1
 294              		.global	USER_CAN1_Filter_Init
 295              		.syntax unified
 296              		.thumb
 297              		.thumb_func
 299              	USER_CAN1_Filter_Init:
 300              	.LFB137:
 121:Core/Src/can.c **** 
 122:Core/Src/can.c **** /* USER CODE BEGIN 1 */
 123:Core/Src/can.c **** 
 124:Core/Src/can.c **** /**
 125:Core/Src/can.c **** 	* @brief   ÂàùÂßãÂåñÊª§Ê≥¢Âô®
 126:Core/Src/can.c **** 	* @param   Êó†
 127:Core/Src/can.c **** 	* @retval  Êó†
 128:Core/Src/can.c **** 	*/
 129:Core/Src/can.c **** void USER_CAN1_Filter_Init(void)
 130:Core/Src/can.c **** {
 301              		.loc 1 130 1 is_stmt 1 view -0
 302              		.cfi_startproc
 303              		@ args = 0, pretend = 0, frame = 56
ARM GAS  C:\Users\81506\AppData\Local\Temp\ccfI4BMb.s 			page 9


 304              		@ frame_needed = 0, uses_anonymous_args = 0
 305 0000 00B5     		push	{lr}
 306              	.LCFI6:
 307              		.cfi_def_cfa_offset 4
 308              		.cfi_offset 14, -4
 309 0002 8FB0     		sub	sp, sp, #60
 310              	.LCFI7:
 311              		.cfi_def_cfa_offset 64
 131:Core/Src/can.c **** 	// ËøáÊª§Âô®ÁªìÊûÑ‰Ωì
 132:Core/Src/can.c **** 	CAN_FilterTypeDef  sFilterConfig;
 312              		.loc 1 132 2 view .LVU77
 133:Core/Src/can.c **** 
 134:Core/Src/can.c **** 	// ËÆæÁΩÆSTM32ÁöÑÂ∏ßID - Êâ©Â±ïÂ∏ßÊ†ºÂºè - ‰∏çËøáÊª§‰ªª‰ΩïÊï∞ÊçÆÂ∏ß
 135:Core/Src/can.c **** 	__IO uint8_t id_o, im_o; __IO uint16_t id_l, id_h, im_l, im_h;
 313              		.loc 1 135 2 view .LVU78
 314              		.loc 1 135 27 view .LVU79
 136:Core/Src/can.c **** 	id_o = (0x00);
 315              		.loc 1 136 2 view .LVU80
 316              		.loc 1 136 7 is_stmt 0 view .LVU81
 317 0004 0022     		movs	r2, #0
 318 0006 8DF80F20 		strb	r2, [sp, #15]
 137:Core/Src/can.c **** 	id_h = (uint16_t)((uint16_t)id_o >> 5);								// È´ò3‰Ωç
 319              		.loc 1 137 2 is_stmt 1 view .LVU82
 320              		.loc 1 137 9 is_stmt 0 view .LVU83
 321 000a 9DF80F30 		ldrb	r3, [sp, #15]	@ zero_extendqisi2
 322 000e 5B09     		lsrs	r3, r3, #5
 323              		.loc 1 137 7 view .LVU84
 324 0010 ADF80A30 		strh	r3, [sp, #10]	@ movhi
 138:Core/Src/can.c **** 	id_l = (uint16_t)((uint16_t)id_o << 11) | CAN_ID_EXT; // ‰Ωé5‰Ωç
 325              		.loc 1 138 2 is_stmt 1 view .LVU85
 326              		.loc 1 138 9 is_stmt 0 view .LVU86
 327 0014 9DF80F30 		ldrb	r3, [sp, #15]	@ zero_extendqisi2
 328 0018 DB02     		lsls	r3, r3, #11
 329 001a 9BB2     		uxth	r3, r3
 330              		.loc 1 138 7 view .LVU87
 331 001c 43F00403 		orr	r3, r3, #4
 332 0020 ADF80C30 		strh	r3, [sp, #12]	@ movhi
 139:Core/Src/can.c **** 	im_o = (0x00);
 333              		.loc 1 139 2 is_stmt 1 view .LVU88
 334              		.loc 1 139 7 is_stmt 0 view .LVU89
 335 0024 8DF80E20 		strb	r2, [sp, #14]
 140:Core/Src/can.c **** 	im_h = (uint16_t)((uint16_t)im_o >> 5);
 336              		.loc 1 140 2 is_stmt 1 view .LVU90
 337              		.loc 1 140 9 is_stmt 0 view .LVU91
 338 0028 9DF80E30 		ldrb	r3, [sp, #14]	@ zero_extendqisi2
 339 002c 5B09     		lsrs	r3, r3, #5
 340              		.loc 1 140 7 view .LVU92
 341 002e ADF80630 		strh	r3, [sp, #6]	@ movhi
 141:Core/Src/can.c **** 	im_l = (uint16_t)((uint16_t)im_o << 11) | CAN_ID_EXT;
 342              		.loc 1 141 2 is_stmt 1 view .LVU93
 343              		.loc 1 141 9 is_stmt 0 view .LVU94
 344 0032 9DF80E30 		ldrb	r3, [sp, #14]	@ zero_extendqisi2
 345 0036 DB02     		lsls	r3, r3, #11
 346 0038 9BB2     		uxth	r3, r3
 347              		.loc 1 141 7 view .LVU95
 348 003a 43F00403 		orr	r3, r3, #4
 349 003e ADF80830 		strh	r3, [sp, #8]	@ movhi
ARM GAS  C:\Users\81506\AppData\Local\Temp\ccfI4BMb.s 			page 10


 142:Core/Src/can.c **** 
 143:Core/Src/can.c **** 	// ËøáÊª§Âô®ÂèÇÊï∞
 144:Core/Src/can.c **** 	sFilterConfig.FilterBank = 0;                      		// ËøáÊª§Âô®1
 350              		.loc 1 144 2 is_stmt 1 view .LVU96
 351              		.loc 1 144 27 is_stmt 0 view .LVU97
 352 0042 0992     		str	r2, [sp, #36]
 145:Core/Src/can.c **** 	sFilterConfig.FilterMode = CAN_FILTERMODE_IDMASK;  		// Êé©Á†ÅÊ®°Âºè
 353              		.loc 1 145 2 is_stmt 1 view .LVU98
 354              		.loc 1 145 27 is_stmt 0 view .LVU99
 355 0044 0A92     		str	r2, [sp, #40]
 146:Core/Src/can.c **** 	sFilterConfig.FilterScale = CAN_FILTERSCALE_32BIT; 		// 32‰ΩçËøáÊª§Âô®‰ΩçÂÆΩ
 356              		.loc 1 146 2 is_stmt 1 view .LVU100
 357              		.loc 1 146 28 is_stmt 0 view .LVU101
 358 0046 0121     		movs	r1, #1
 359 0048 0B91     		str	r1, [sp, #44]
 147:Core/Src/can.c **** 	sFilterConfig.FilterIdHigh = id_h;               			// ËøáÊª§Âô®Ê†áËØÜÁ¨¶ÁöÑÈ´ò16‰ΩçÂÄº
 360              		.loc 1 147 2 is_stmt 1 view .LVU102
 361              		.loc 1 147 29 is_stmt 0 view .LVU103
 362 004a BDF80A30 		ldrh	r3, [sp, #10]
 363 004e 9BB2     		uxth	r3, r3
 364 0050 0493     		str	r3, [sp, #16]
 148:Core/Src/can.c **** 	sFilterConfig.FilterIdLow = id_l;                			// ËøáÊª§Âô®Ê†áËØÜÁ¨¶ÁöÑ‰Ωé16‰ΩçÂÄº
 365              		.loc 1 148 2 is_stmt 1 view .LVU104
 366              		.loc 1 148 28 is_stmt 0 view .LVU105
 367 0052 BDF80C30 		ldrh	r3, [sp, #12]
 368 0056 9BB2     		uxth	r3, r3
 369 0058 0593     		str	r3, [sp, #20]
 149:Core/Src/can.c **** 	sFilterConfig.FilterMaskIdHigh = im_h;           			// ËøáÊª§Âô®Â±èËîΩÊ†áËØÜÁ¨¶ÁöÑÈ´ò16‰ΩçÂÄº
 370              		.loc 1 149 2 is_stmt 1 view .LVU106
 371              		.loc 1 149 33 is_stmt 0 view .LVU107
 372 005a BDF80630 		ldrh	r3, [sp, #6]
 373 005e 9BB2     		uxth	r3, r3
 374 0060 0693     		str	r3, [sp, #24]
 150:Core/Src/can.c **** 	sFilterConfig.FilterMaskIdLow = im_l;            			// ËøáÊª§Âô®Â±èËîΩÊ†áËØÜÁ¨¶ÁöÑ‰Ωé16‰ΩçÂÄº
 375              		.loc 1 150 2 is_stmt 1 view .LVU108
 376              		.loc 1 150 32 is_stmt 0 view .LVU109
 377 0062 BDF80830 		ldrh	r3, [sp, #8]
 378 0066 9BB2     		uxth	r3, r3
 379 0068 0793     		str	r3, [sp, #28]
 151:Core/Src/can.c **** 	sFilterConfig.FilterFIFOAssignment = CAN_RX_FIFO0; 		// ÊåáÂêëËøáÊª§Âô®ÁöÑFIFO‰∏∫0
 380              		.loc 1 151 2 is_stmt 1 view .LVU110
 381              		.loc 1 151 37 is_stmt 0 view .LVU111
 382 006a 0892     		str	r2, [sp, #32]
 152:Core/Src/can.c **** 	sFilterConfig.FilterActivation = ENABLE;           		// ‰ΩøËÉΩËøáÊª§Âô®
 383              		.loc 1 152 2 is_stmt 1 view .LVU112
 384              		.loc 1 152 33 is_stmt 0 view .LVU113
 385 006c 0C91     		str	r1, [sp, #48]
 153:Core/Src/can.c **** 	sFilterConfig.SlaveStartFilterBank = 0;           		// ‰ªéËøáÊª§Âô®ÈÖçÁΩÆÔºåÁî®Êù•ÈÄâÊã©‰ªéËøáÊª§Â
 386              		.loc 1 153 2 is_stmt 1 view .LVU114
 387              		.loc 1 153 37 is_stmt 0 view .LVU115
 388 006e 0D92     		str	r2, [sp, #52]
 154:Core/Src/can.c **** 
 155:Core/Src/can.c **** 	// ÈÖçÁΩÆÂπ∂Ëá™Ê£Ä
 156:Core/Src/can.c **** 	while(HAL_CAN_ConfigFilter(&hcan1, &sFilterConfig) != HAL_OK);
 389              		.loc 1 156 2 is_stmt 1 view .LVU116
 390              	.L20:
 391              		.loc 1 156 53 discriminator 1 view .LVU117
ARM GAS  C:\Users\81506\AppData\Local\Temp\ccfI4BMb.s 			page 11


 392              		.loc 1 156 8 is_stmt 0 discriminator 1 view .LVU118
 393 0070 04A9     		add	r1, sp, #16
 394 0072 0448     		ldr	r0, .L22
 395 0074 FFF7FEFF 		bl	HAL_CAN_ConfigFilter
 396              	.LVL15:
 397              		.loc 1 156 53 discriminator 1 view .LVU119
 398 0078 0028     		cmp	r0, #0
 399 007a F9D1     		bne	.L20
 157:Core/Src/can.c **** }
 400              		.loc 1 157 1 view .LVU120
 401 007c 0FB0     		add	sp, sp, #60
 402              	.LCFI8:
 403              		.cfi_def_cfa_offset 4
 404              		@ sp needed
 405 007e 5DF804FB 		ldr	pc, [sp], #4
 406              	.L23:
 407 0082 00BF     		.align	2
 408              	.L22:
 409 0084 00000000 		.word	hcan1
 410              		.cfi_endproc
 411              	.LFE137:
 413              		.section	.text.can_SendCmd,"ax",%progbits
 414              		.align	1
 415              		.global	can_SendCmd
 416              		.syntax unified
 417              		.thumb
 418              		.thumb_func
 420              	can_SendCmd:
 421              	.LVL16:
 422              	.LFB138:
 158:Core/Src/can.c **** 
 159:Core/Src/can.c **** /**
 160:Core/Src/can.c **** 	* @brief   CANÂèëÈÄÅÂ§ö‰∏™Â≠óËäÇ
 161:Core/Src/can.c **** 	* @param   Êó†
 162:Core/Src/can.c **** 	* @retval  Êó†
 163:Core/Src/can.c **** 	*/
 164:Core/Src/can.c **** void can_SendCmd(__IO uint8_t *cmd, uint8_t len)
 165:Core/Src/can.c **** {
 423              		.loc 1 165 1 is_stmt 1 view -0
 424              		.cfi_startproc
 425              		@ args = 0, pretend = 0, frame = 8
 426              		@ frame_needed = 0, uses_anonymous_args = 0
 427              		.loc 1 165 1 is_stmt 0 view .LVU122
 428 0000 10B5     		push	{r4, lr}
 429              	.LCFI9:
 430              		.cfi_def_cfa_offset 8
 431              		.cfi_offset 4, -8
 432              		.cfi_offset 14, -4
 433 0002 82B0     		sub	sp, sp, #8
 434              	.LCFI10:
 435              		.cfi_def_cfa_offset 16
 436 0004 0446     		mov	r4, r0
 166:Core/Src/can.c **** 	static uint32_t TxMailbox; __IO uint8_t i = 0, j = 0, k = 0, l = 0, packNum = 0;
 437              		.loc 1 166 2 is_stmt 1 view .LVU123
 438              		.loc 1 166 29 view .LVU124
 439              		.loc 1 166 42 is_stmt 0 view .LVU125
 440 0006 0023     		movs	r3, #0
ARM GAS  C:\Users\81506\AppData\Local\Temp\ccfI4BMb.s 			page 12


 441 0008 8DF80730 		strb	r3, [sp, #7]
 442              		.loc 1 166 49 view .LVU126
 443 000c 8DF80630 		strb	r3, [sp, #6]
 444              		.loc 1 166 56 view .LVU127
 445 0010 8DF80530 		strb	r3, [sp, #5]
 446              		.loc 1 166 63 view .LVU128
 447 0014 8DF80430 		strb	r3, [sp, #4]
 448              		.loc 1 166 70 view .LVU129
 449 0018 8DF80330 		strb	r3, [sp, #3]
 167:Core/Src/can.c **** 
 168:Core/Src/can.c **** 	// Èô§ÂéªIDÂú∞ÂùÄÂíåÂäüËÉΩÁ†ÅÂêéÁöÑÊï∞ÊçÆÈïøÂ∫¶
 169:Core/Src/can.c **** 	j = len - 2;
 450              		.loc 1 169 2 is_stmt 1 view .LVU130
 451              		.loc 1 169 10 is_stmt 0 view .LVU131
 452 001c 8B1E     		subs	r3, r1, #2
 453 001e DBB2     		uxtb	r3, r3
 454              		.loc 1 169 4 view .LVU132
 455 0020 8DF80630 		strb	r3, [sp, #6]
 170:Core/Src/can.c **** 
 171:Core/Src/can.c **** 	// ÂèëÈÄÅÊï∞ÊçÆ
 172:Core/Src/can.c **** 	while(i < j)
 456              		.loc 1 172 2 is_stmt 1 view .LVU133
 457              		.loc 1 172 7 is_stmt 0 view .LVU134
 458 0024 13E0     		b	.L25
 459              	.LVL17:
 460              	.L36:
 173:Core/Src/can.c **** 	{
 174:Core/Src/can.c **** 		// Êï∞ÊçÆ‰∏™Êï∞
 175:Core/Src/can.c **** 		k = j - i;
 176:Core/Src/can.c **** 
 177:Core/Src/can.c **** 		// Â°´ÂÖÖÁºìÂ≠ò
 178:Core/Src/can.c **** 		can.CAN_TxMsg.StdId = 0x00;
 179:Core/Src/can.c **** 		can.CAN_TxMsg.ExtId = ((uint32_t)cmd[0] << 8) | (uint32_t)packNum;
 180:Core/Src/can.c **** 		can.txData[0] = cmd[1];
 181:Core/Src/can.c **** 		can.CAN_TxMsg.IDE = CAN_ID_EXT;
 182:Core/Src/can.c **** 		can.CAN_TxMsg.RTR = CAN_RTR_DATA;
 183:Core/Src/can.c **** 
 184:Core/Src/can.c **** 		// Â∞è‰∫é8Â≠óËäÇÂëΩ‰ª§
 185:Core/Src/can.c **** 		if(k < 8)
 186:Core/Src/can.c **** 		{
 187:Core/Src/can.c **** 			for(l=0; l < k; l++,i++) { can.txData[l + 1] = cmd[i + 2]; } can.CAN_TxMsg.DLC = k + 1;
 461              		.loc 1 187 65 is_stmt 1 discriminator 4 view .LVU135
 462              		.loc 1 187 87 is_stmt 0 discriminator 4 view .LVU136
 463 0026 9DF80530 		ldrb	r3, [sp, #5]	@ zero_extendqisi2
 464 002a 0133     		adds	r3, r3, #1
 465              		.loc 1 187 83 discriminator 4 view .LVU137
 466 002c 3F4A     		ldr	r2, .L38
 467 002e D364     		str	r3, [r2, #76]
 468              	.L32:
 188:Core/Src/can.c **** 		}
 189:Core/Src/can.c **** 		// Â§ß‰∫é8Â≠óËäÇÂëΩ‰ª§ÔºåÂàÜÂåÖÂèëÈÄÅÔºåÊØèÂåÖÊï∞ÊçÆÊúÄÂ§öÂèëÈÄÅ8‰∏™Â≠óËäÇ
 190:Core/Src/can.c **** 		else
 191:Core/Src/can.c **** 		{
 192:Core/Src/can.c **** 			for(l=0; l < 7; l++,i++) { can.txData[l + 1] = cmd[i + 2]; } can.CAN_TxMsg.DLC = 8;
 193:Core/Src/can.c **** 		}
 194:Core/Src/can.c **** 
 195:Core/Src/can.c **** 		// ÂèëÈÄÅÊï∞ÊçÆ
ARM GAS  C:\Users\81506\AppData\Local\Temp\ccfI4BMb.s 			page 13


 196:Core/Src/can.c **** 		while(HAL_CAN_AddTxMessage((&hcan1), (CAN_TxHeaderTypeDef *)(&can.CAN_TxMsg), (uint8_t *)(&can.tx
 469              		.loc 1 196 121 is_stmt 1 discriminator 1 view .LVU138
 470              		.loc 1 196 9 is_stmt 0 discriminator 1 view .LVU139
 471 0030 3F4A     		ldr	r2, .L38+4
 472 0032 404B     		ldr	r3, .L38+8
 473 0034 A2F11801 		sub	r1, r2, #24
 474 0038 3F48     		ldr	r0, .L38+12
 475 003a FFF7FEFF 		bl	HAL_CAN_AddTxMessage
 476              	.LVL18:
 477              		.loc 1 196 121 discriminator 1 view .LVU140
 478 003e 0028     		cmp	r0, #0
 479 0040 F6D1     		bne	.L32
 197:Core/Src/can.c **** 
 198:Core/Src/can.c **** 		// ËÆ∞ÂΩïÂèëÈÄÅÁöÑÁ¨¨Âá†ÂåÖÁöÑÊï∞ÊçÆ
 199:Core/Src/can.c **** 		++packNum;
 480              		.loc 1 199 3 is_stmt 1 view .LVU141
 481 0042 9DF80330 		ldrb	r3, [sp, #3]	@ zero_extendqisi2
 482 0046 0133     		adds	r3, r3, #1
 483 0048 DBB2     		uxtb	r3, r3
 484 004a 8DF80330 		strb	r3, [sp, #3]
 485              	.L25:
 172:Core/Src/can.c **** 	{
 486              		.loc 1 172 10 view .LVU142
 487 004e 9DF80720 		ldrb	r2, [sp, #7]	@ zero_extendqisi2
 488 0052 D2B2     		uxtb	r2, r2
 489 0054 9DF80630 		ldrb	r3, [sp, #6]	@ zero_extendqisi2
 490 0058 DBB2     		uxtb	r3, r3
 491 005a 9A42     		cmp	r2, r3
 492 005c 64D2     		bcs	.L35
 175:Core/Src/can.c **** 
 493              		.loc 1 175 3 view .LVU143
 175:Core/Src/can.c **** 
 494              		.loc 1 175 9 is_stmt 0 view .LVU144
 495 005e 9DF80630 		ldrb	r3, [sp, #6]	@ zero_extendqisi2
 496 0062 9DF80720 		ldrb	r2, [sp, #7]	@ zero_extendqisi2
 497 0066 9B1A     		subs	r3, r3, r2
 498 0068 DBB2     		uxtb	r3, r3
 175:Core/Src/can.c **** 
 499              		.loc 1 175 5 view .LVU145
 500 006a 8DF80530 		strb	r3, [sp, #5]
 178:Core/Src/can.c **** 		can.CAN_TxMsg.ExtId = ((uint32_t)cmd[0] << 8) | (uint32_t)packNum;
 501              		.loc 1 178 3 is_stmt 1 view .LVU146
 178:Core/Src/can.c **** 		can.CAN_TxMsg.ExtId = ((uint32_t)cmd[0] << 8) | (uint32_t)packNum;
 502              		.loc 1 178 23 is_stmt 0 view .LVU147
 503 006e 2F4B     		ldr	r3, .L38
 504 0070 0021     		movs	r1, #0
 505 0072 D963     		str	r1, [r3, #60]
 179:Core/Src/can.c **** 		can.txData[0] = cmd[1];
 506              		.loc 1 179 3 is_stmt 1 view .LVU148
 179:Core/Src/can.c **** 		can.txData[0] = cmd[1];
 507              		.loc 1 179 39 is_stmt 0 view .LVU149
 508 0074 2078     		ldrb	r0, [r4]	@ zero_extendqisi2
 179:Core/Src/can.c **** 		can.txData[0] = cmd[1];
 509              		.loc 1 179 51 view .LVU150
 510 0076 9DF80320 		ldrb	r2, [sp, #3]	@ zero_extendqisi2
 179:Core/Src/can.c **** 		can.txData[0] = cmd[1];
 511              		.loc 1 179 49 view .LVU151
ARM GAS  C:\Users\81506\AppData\Local\Temp\ccfI4BMb.s 			page 14


 512 007a 42EA0022 		orr	r2, r2, r0, lsl #8
 179:Core/Src/can.c **** 		can.txData[0] = cmd[1];
 513              		.loc 1 179 23 view .LVU152
 514 007e 1A64     		str	r2, [r3, #64]
 180:Core/Src/can.c **** 		can.CAN_TxMsg.IDE = CAN_ID_EXT;
 515              		.loc 1 180 3 is_stmt 1 view .LVU153
 180:Core/Src/can.c **** 		can.CAN_TxMsg.IDE = CAN_ID_EXT;
 516              		.loc 1 180 22 is_stmt 0 view .LVU154
 517 0080 6278     		ldrb	r2, [r4, #1]	@ zero_extendqisi2
 518 0082 D2B2     		uxtb	r2, r2
 180:Core/Src/can.c **** 		can.CAN_TxMsg.IDE = CAN_ID_EXT;
 519              		.loc 1 180 17 view .LVU155
 520 0084 83F85420 		strb	r2, [r3, #84]
 181:Core/Src/can.c **** 		can.CAN_TxMsg.RTR = CAN_RTR_DATA;
 521              		.loc 1 181 3 is_stmt 1 view .LVU156
 181:Core/Src/can.c **** 		can.CAN_TxMsg.RTR = CAN_RTR_DATA;
 522              		.loc 1 181 21 is_stmt 0 view .LVU157
 523 0088 0422     		movs	r2, #4
 524 008a 5A64     		str	r2, [r3, #68]
 182:Core/Src/can.c **** 
 525              		.loc 1 182 3 is_stmt 1 view .LVU158
 182:Core/Src/can.c **** 
 526              		.loc 1 182 21 is_stmt 0 view .LVU159
 527 008c 9964     		str	r1, [r3, #72]
 185:Core/Src/can.c **** 		{
 528              		.loc 1 185 3 is_stmt 1 view .LVU160
 185:Core/Src/can.c **** 		{
 529              		.loc 1 185 8 is_stmt 0 view .LVU161
 530 008e 9DF80530 		ldrb	r3, [sp, #5]	@ zero_extendqisi2
 531 0092 DBB2     		uxtb	r3, r3
 185:Core/Src/can.c **** 		{
 532              		.loc 1 185 5 view .LVU162
 533 0094 072B     		cmp	r3, #7
 534 0096 22D8     		bhi	.L26
 187:Core/Src/can.c **** 		}
 535              		.loc 1 187 4 is_stmt 1 view .LVU163
 187:Core/Src/can.c **** 		}
 536              		.loc 1 187 9 is_stmt 0 view .LVU164
 537 0098 8DF80410 		strb	r1, [sp, #4]
 538              	.L27:
 187:Core/Src/can.c **** 		}
 539              		.loc 1 187 15 is_stmt 1 discriminator 1 view .LVU165
 540 009c 9DF80420 		ldrb	r2, [sp, #4]	@ zero_extendqisi2
 541 00a0 D2B2     		uxtb	r2, r2
 542 00a2 9DF80530 		ldrb	r3, [sp, #5]	@ zero_extendqisi2
 543 00a6 DBB2     		uxtb	r3, r3
 544 00a8 9A42     		cmp	r2, r3
 545 00aa BCD2     		bcs	.L36
 187:Core/Src/can.c **** 		}
 546              		.loc 1 187 31 discriminator 3 view .LVU166
 187:Core/Src/can.c **** 		}
 547              		.loc 1 187 54 is_stmt 0 discriminator 3 view .LVU167
 548 00ac 9DF80730 		ldrb	r3, [sp, #7]	@ zero_extendqisi2
 549 00b0 0233     		adds	r3, r3, #2
 187:Core/Src/can.c **** 		}
 550              		.loc 1 187 44 discriminator 3 view .LVU168
 551 00b2 9DF80410 		ldrb	r1, [sp, #4]	@ zero_extendqisi2
ARM GAS  C:\Users\81506\AppData\Local\Temp\ccfI4BMb.s 			page 15


 552 00b6 0131     		adds	r1, r1, #1
 187:Core/Src/can.c **** 		}
 553              		.loc 1 187 54 discriminator 3 view .LVU169
 554 00b8 E25C     		ldrb	r2, [r4, r3]	@ zero_extendqisi2
 555 00ba D2B2     		uxtb	r2, r2
 187:Core/Src/can.c **** 		}
 556              		.loc 1 187 49 discriminator 3 view .LVU170
 557 00bc 1B4B     		ldr	r3, .L38
 558 00be 0B44     		add	r3, r3, r1
 559 00c0 83F85420 		strb	r2, [r3, #84]
 187:Core/Src/can.c **** 		}
 560              		.loc 1 187 23 is_stmt 1 discriminator 3 view .LVU171
 187:Core/Src/can.c **** 		}
 561              		.loc 1 187 21 is_stmt 0 discriminator 3 view .LVU172
 562 00c4 9DF80430 		ldrb	r3, [sp, #4]	@ zero_extendqisi2
 563 00c8 0133     		adds	r3, r3, #1
 564 00ca DBB2     		uxtb	r3, r3
 565 00cc 8DF80430 		strb	r3, [sp, #4]
 187:Core/Src/can.c **** 		}
 566              		.loc 1 187 25 discriminator 3 view .LVU173
 567 00d0 9DF80730 		ldrb	r3, [sp, #7]	@ zero_extendqisi2
 568 00d4 0133     		adds	r3, r3, #1
 569 00d6 DBB2     		uxtb	r3, r3
 570 00d8 8DF80730 		strb	r3, [sp, #7]
 571 00dc DEE7     		b	.L27
 572              	.L26:
 192:Core/Src/can.c **** 		}
 573              		.loc 1 192 4 is_stmt 1 view .LVU174
 192:Core/Src/can.c **** 		}
 574              		.loc 1 192 9 is_stmt 0 view .LVU175
 575 00de 0023     		movs	r3, #0
 576 00e0 8DF80430 		strb	r3, [sp, #4]
 577              	.L30:
 192:Core/Src/can.c **** 		}
 578              		.loc 1 192 15 is_stmt 1 discriminator 1 view .LVU176
 579 00e4 9DF80430 		ldrb	r3, [sp, #4]	@ zero_extendqisi2
 580 00e8 DBB2     		uxtb	r3, r3
 581 00ea 062B     		cmp	r3, #6
 582 00ec 18D8     		bhi	.L37
 192:Core/Src/can.c **** 		}
 583              		.loc 1 192 31 discriminator 3 view .LVU177
 192:Core/Src/can.c **** 		}
 584              		.loc 1 192 54 is_stmt 0 discriminator 3 view .LVU178
 585 00ee 9DF80730 		ldrb	r3, [sp, #7]	@ zero_extendqisi2
 586 00f2 0233     		adds	r3, r3, #2
 192:Core/Src/can.c **** 		}
 587              		.loc 1 192 44 discriminator 3 view .LVU179
 588 00f4 9DF80410 		ldrb	r1, [sp, #4]	@ zero_extendqisi2
 589 00f8 0131     		adds	r1, r1, #1
 192:Core/Src/can.c **** 		}
 590              		.loc 1 192 54 discriminator 3 view .LVU180
 591 00fa E25C     		ldrb	r2, [r4, r3]	@ zero_extendqisi2
 592 00fc D2B2     		uxtb	r2, r2
 192:Core/Src/can.c **** 		}
 593              		.loc 1 192 49 discriminator 3 view .LVU181
 594 00fe 0B4B     		ldr	r3, .L38
 595 0100 0B44     		add	r3, r3, r1
ARM GAS  C:\Users\81506\AppData\Local\Temp\ccfI4BMb.s 			page 16


 596 0102 83F85420 		strb	r2, [r3, #84]
 192:Core/Src/can.c **** 		}
 597              		.loc 1 192 23 is_stmt 1 discriminator 3 view .LVU182
 192:Core/Src/can.c **** 		}
 598              		.loc 1 192 21 is_stmt 0 discriminator 3 view .LVU183
 599 0106 9DF80430 		ldrb	r3, [sp, #4]	@ zero_extendqisi2
 600 010a 0133     		adds	r3, r3, #1
 601 010c DBB2     		uxtb	r3, r3
 602 010e 8DF80430 		strb	r3, [sp, #4]
 192:Core/Src/can.c **** 		}
 603              		.loc 1 192 25 discriminator 3 view .LVU184
 604 0112 9DF80730 		ldrb	r3, [sp, #7]	@ zero_extendqisi2
 605 0116 0133     		adds	r3, r3, #1
 606 0118 DBB2     		uxtb	r3, r3
 607 011a 8DF80730 		strb	r3, [sp, #7]
 608 011e E1E7     		b	.L30
 609              	.L37:
 192:Core/Src/can.c **** 		}
 610              		.loc 1 192 65 is_stmt 1 discriminator 4 view .LVU185
 192:Core/Src/can.c **** 		}
 611              		.loc 1 192 83 is_stmt 0 discriminator 4 view .LVU186
 612 0120 024B     		ldr	r3, .L38
 613 0122 0822     		movs	r2, #8
 614 0124 DA64     		str	r2, [r3, #76]
 615 0126 83E7     		b	.L32
 616              	.L35:
 200:Core/Src/can.c **** 	}
 201:Core/Src/can.c **** }
 617              		.loc 1 201 1 view .LVU187
 618 0128 02B0     		add	sp, sp, #8
 619              	.LCFI11:
 620              		.cfi_def_cfa_offset 8
 621              		@ sp needed
 622 012a 10BD     		pop	{r4, pc}
 623              	.LVL19:
 624              	.L39:
 625              		.loc 1 201 1 view .LVU188
 626              		.align	2
 627              	.L38:
 628 012c 00000000 		.word	can
 629 0130 54000000 		.word	can+84
 630 0134 00000000 		.word	TxMailbox.0
 631 0138 00000000 		.word	hcan1
 632              		.cfi_endproc
 633              	.LFE138:
 635              		.section	.bss.TxMailbox.0,"aw",%nobits
 636              		.align	2
 639              	TxMailbox.0:
 640 0000 00000000 		.space	4
 641              		.global	hcan1
 642              		.section	.bss.hcan1,"aw",%nobits
 643              		.align	2
 646              	hcan1:
 647 0000 00000000 		.space	40
 647      00000000 
 647      00000000 
 647      00000000 
ARM GAS  C:\Users\81506\AppData\Local\Temp\ccfI4BMb.s 			page 17


 647      00000000 
 648              		.global	can
 649              		.section	.bss.can,"aw",%nobits
 650              		.align	2
 653              	can:
 654 0000 00000000 		.space	120
 654      00000000 
 654      00000000 
 654      00000000 
 654      00000000 
 655              		.text
 656              	.Letext0:
 657              		.file 2 "Drivers/CMSIS/Device/ST/STM32F4xx/Include/stm32f407xx.h"
 658              		.file 3 "C:/DevToolBox_Slot/GNU_CompilerCollection/arm-none-eabi/include/machine/_default_types.h"
 659              		.file 4 "C:/DevToolBox_Slot/GNU_CompilerCollection/arm-none-eabi/include/sys/_stdint.h"
 660              		.file 5 "Drivers/CMSIS/Device/ST/STM32F4xx/Include/stm32f4xx.h"
 661              		.file 6 "Drivers/STM32F4xx_HAL_Driver/Inc/stm32f4xx_hal_def.h"
 662              		.file 7 "Drivers/STM32F4xx_HAL_Driver/Inc/stm32f4xx_hal_gpio.h"
 663              		.file 8 "Drivers/STM32F4xx_HAL_Driver/Inc/stm32f4xx_hal_can.h"
 664              		.file 9 "Core/Inc/can.h"
 665              		.file 10 "Drivers/STM32F4xx_HAL_Driver/Inc/stm32f4xx_hal_cortex.h"
 666              		.file 11 "Core/Inc/main.h"
ARM GAS  C:\Users\81506\AppData\Local\Temp\ccfI4BMb.s 			page 18

